; Function Attrs: mustprogress nofree norecurse nosync nounwind willreturn memory(argmem: read) uwtable
define dso_local noundef zeroext i1 @_ZN7doctestneERKNS_6ApproxEd(ptr noundef nonnull readonly align 8 captures(none) dereferenceable(24) %0, double noundef %1) local_unnamed_addr #17 {
  %3 = getelementptr inbounds nuw i8, ptr %0, i64 16
  %4 = load double, ptr %3, align 8, !tbaa !129
  %5 = fsub double %1, %4
  %6 = tail call double @llvm.fabs.f64(double %5)
  %7 = load double, ptr %0, align 8, !tbaa !126
  %8 = getelementptr inbounds nuw i8, ptr %0, i64 8
  %9 = load double, ptr %8, align 8, !tbaa !128
  %10 = tail call double @llvm.fabs.f64(double %1)
  %11 = tail call double @llvm.fabs.f64(double %4)
  %12 = fcmp olt double %10, %11
  %.sroa.speculated.i = select i1 %12, double %11, double %10
  %13 = fadd double %9, %.sroa.speculated.i
  %14 = fmul double %7, %13
  %15 = fcmp uge double %6, %14
  ret i1 %15
}